target datalayout = "e-m:e-p270:32:32-p271:32:32-p272:64:64-i64:64-i128:128-f80:128-n8:16:32:64-S128"
target triple = "x86_64-pc-linux-gnu"

%"class.std::ios_base" = type { ptr, i64, i64, i32, i32, i32, ptr, %"struct.std::ios_base::_Words", [8 x %"struct.std::ios_base::_Words"], i32, ptr, %"class.std::locale" }
%"struct.std::ios_base::_Words" = type { ptr, i64 }
%"class.std::locale" = type { ptr }

@.str = private unnamed_addr constant [8 x i8] c"DEFAULT\00", align 1
@.str.21 = private unnamed_addr constant [7 x i8] c"HALIDE\00", align 1
@.str.22 = private unnamed_addr constant [6 x i8] c"DLIE*\00", align 1
@.str.23 = private unnamed_addr constant [6 x i8] c"VKCOM\00", align 1
@.str.24 = private unnamed_addr constant [4 x i8] c"OCV\00", align 1
@.str.25 = private unnamed_addr constant [5 x i8] c"CUDA\00", align 1
@.str.26 = private unnamed_addr constant [5 x i8] c"DLIE\00", align 1
@.str.27 = private unnamed_addr constant [7 x i8] c"NGRAPH\00", align 1
@.str.28 = private unnamed_addr constant [6 x i8] c"WEBNN\00", align 1
@.str.29 = private unnamed_addr constant [6 x i8] c"TIMVX\00", align 1
@.str.30 = private unnamed_addr constant [5 x i8] c"CANN\00", align 1
@.str.31 = private unnamed_addr constant [21 x i8] c"DNN_BACKEND_UNKNOWN(\00", align 1
@.str.32 = private unnamed_addr constant [2 x i8] c")\00", align 1

; Function Attrs: inlinehint mustprogress nounwind uwtable
define linkonce_odr dso_local noundef i32 @_ZStorSt12_Ios_IostateS_(i32 noundef %0, i32 noundef %1) #4 comdat {
  %3 = alloca i32, align 4
  %4 = alloca i32, align 4
  store i32 %0, ptr %3, align 4, !tbaa !319
  store i32 %1, ptr %4, align 4, !tbaa !319
  %5 = load i32, ptr %3, align 4, !tbaa !319
  %6 = load i32, ptr %4, align 4, !tbaa !319
  %7 = or i32 %5, %6
  ret i32 %7
}

; Function Attrs: mustprogress nounwind uwtable
define available_externally noundef i32 @_ZNKSt9basic_iosIcSt11char_traitsIcEE7rdstateEv(ptr noundef nonnull align 8 dereferenceable(264) %0) #8 align 2 {
  %2 = alloca ptr, align 8
  store ptr %0, ptr %2, align 8, !tbaa !156
  %3 = load ptr, ptr %2, align 8
  %4 = getelementptr inbounds nuw %"class.std::ios_base", ptr %3, i32 0, i32 5
  %5 = load i32, ptr %4, align 8, !tbaa !320
  ret i32 %5
}

; Function Attrs: mustprogress nounwind uwtable
define linkonce_odr hidden noundef i64 @_ZNSt11char_traitsIcE6lengthEPKc(ptr noundef %0) #8 comdat align 2 {
  %2 = alloca ptr, align 8
  store ptr %0, ptr %2, align 8, !tbaa !19
  %3 = load ptr, ptr %2, align 8, !tbaa !19
  %4 = call i64 @strlen(ptr noundef %3) #3
  ret i64 %4
}

; Function Attrs: mustprogress uwtable
define available_externally void @_ZNSt9basic_iosIcSt11char_traitsIcEE8setstateESt12_Ios_Iostate(ptr noundef nonnull align 8 dereferenceable(264) %0, i32 noundef %1) #6 align 2 {
  %3 = alloca ptr, align 8
  %4 = alloca i32, align 4
  store ptr %0, ptr %3, align 8, !tbaa !156
  store i32 %1, ptr %4, align 4, !tbaa !319
  %5 = load ptr, ptr %3, align 8
  %6 = call noundef i32 @_ZNKSt9basic_iosIcSt11char_traitsIcEE7rdstateEv(ptr noundef nonnull align 8 dereferenceable(264) %5)
  %7 = load i32, ptr %4, align 4, !tbaa !319
  %8 = call noundef i32 @_ZStorSt12_Ios_IostateS_(i32 noundef %6, i32 noundef %7)
  call void @_ZNSt9basic_iosIcSt11char_traitsIcEE5clearESt12_Ios_Iostate(ptr noundef nonnull align 8 dereferenceable(264) %5, i32 noundef %8)
  ret void
}

; Function Attrs: inlinehint mustprogress uwtable
define available_externally noundef nonnull align 8 dereferenceable(8) ptr @_ZStlsISt11char_traitsIcEERSt13basic_ostreamIcT_ES5_PKc(ptr noundef nonnull align 8 dereferenceable(8) %0, ptr noundef %1) #7 {
  %3 = alloca ptr, align 8
  %4 = alloca ptr, align 8
  store ptr %0, ptr %3, align 8, !tbaa !15
  store ptr %1, ptr %4, align 8, !tbaa !19
  %5 = load ptr, ptr %4, align 8, !tbaa !19
  %6 = icmp ne ptr %5, null
  br i1 %6, label %13, label %7

7:                                                ; preds = %2
  %8 = load ptr, ptr %3, align 8, !tbaa !15
  %9 = load ptr, ptr %8, align 8, !tbaa !21
  %10 = getelementptr i8, ptr %9, i64 -24
  %11 = load i64, ptr %10, align 8
  %12 = getelementptr inbounds i8, ptr %8, i64 %11
  call void @_ZNSt9basic_iosIcSt11char_traitsIcEE8setstateESt12_Ios_Iostate(ptr noundef nonnull align 8 dereferenceable(264) %12, i32 noundef 1)
  br label %19

13:                                               ; preds = %2
  %14 = load ptr, ptr %3, align 8, !tbaa !15
  %15 = load ptr, ptr %4, align 8, !tbaa !19
  %16 = load ptr, ptr %4, align 8, !tbaa !19
  %17 = call noundef i64 @_ZNSt11char_traitsIcE6lengthEPKc(ptr noundef %16)
  %18 = call noundef nonnull align 8 dereferenceable(8) ptr @_ZSt16__ostream_insertIcSt11char_traitsIcEERSt13basic_ostreamIT_T0_ES6_PKS3_l(ptr noundef nonnull align 8 dereferenceable(8) %14, ptr noundef %15, i64 noundef %17)
  br label %19

19:                                               ; preds = %13, %7
  %20 = load ptr, ptr %3, align 8, !tbaa !15
  ret ptr %20
}

; Function Attrs: mustprogress uwtable
define hidden void @_ZN2cv3dnn14dnn4_v202412237PrintToERKNS1_7BackendEPSo(ptr noundef nonnull align 4 dereferenceable(4) %0, ptr noundef %1) #6 {
  %3 = alloca ptr, align 8
  %4 = alloca ptr, align 8
  store ptr %0, ptr %3, align 8, !tbaa !14
  store ptr %1, ptr %4, align 8, !tbaa !15
  %5 = load ptr, ptr %3, align 8, !tbaa !14
  %6 = load i32, ptr %5, align 4, !tbaa !17
  switch i32 %6, label %40 [
    i32 0, label %7
    i32 1, label %10
    i32 2, label %13
    i32 4, label %16
    i32 3, label %19
    i32 5, label %22
    i32 1000001, label %25
    i32 1000000, label %28
    i32 6, label %31
    i32 7, label %34
    i32 8, label %37
  ]

7:                                                ; preds = %2
  %8 = load ptr, ptr %4, align 8, !tbaa !15
  %9 = call noundef nonnull align 8 dereferenceable(8) ptr @_ZStlsISt11char_traitsIcEERSt13basic_ostreamIcT_ES5_PKc(ptr noundef nonnull align 8 dereferenceable(8) %8, ptr noundef @.str)
  br label %47

10:                                               ; preds = %2
  %11 = load ptr, ptr %4, align 8, !tbaa !15
  %12 = call noundef nonnull align 8 dereferenceable(8) ptr @_ZStlsISt11char_traitsIcEERSt13basic_ostreamIcT_ES5_PKc(ptr noundef nonnull align 8 dereferenceable(8) %11, ptr noundef @.str.21)
  br label %47

13:                                               ; preds = %2
  %14 = load ptr, ptr %4, align 8, !tbaa !15
  %15 = call noundef nonnull align 8 dereferenceable(8) ptr @_ZStlsISt11char_traitsIcEERSt13basic_ostreamIcT_ES5_PKc(ptr noundef nonnull align 8 dereferenceable(8) %14, ptr noundef @.str.22)
  br label %47

16:                                               ; preds = %2
  %17 = load ptr, ptr %4, align 8, !tbaa !15
  %18 = call noundef nonnull align 8 dereferenceable(8) ptr @_ZStlsISt11char_traitsIcEERSt13basic_ostreamIcT_ES5_PKc(ptr noundef nonnull align 8 dereferenceable(8) %17, ptr noundef @.str.23)
  br label %47

19:                                               ; preds = %2
  %20 = load ptr, ptr %4, align 8, !tbaa !15
  %21 = call noundef nonnull align 8 dereferenceable(8) ptr @_ZStlsISt11char_traitsIcEERSt13basic_ostreamIcT_ES5_PKc(ptr noundef nonnull align 8 dereferenceable(8) %20, ptr noundef @.str.24)
  br label %47

22:                                               ; preds = %2
  %23 = load ptr, ptr %4, align 8, !tbaa !15
  %24 = call noundef nonnull align 8 dereferenceable(8) ptr @_ZStlsISt11char_traitsIcEERSt13basic_ostreamIcT_ES5_PKc(ptr noundef nonnull align 8 dereferenceable(8) %23, ptr noundef @.str.25)
  br label %47

25:                                               ; preds = %2
  %26 = load ptr, ptr %4, align 8, !tbaa !15
  %27 = call noundef nonnull align 8 dereferenceable(8) ptr @_ZStlsISt11char_traitsIcEERSt13basic_ostreamIcT_ES5_PKc(ptr noundef nonnull align 8 dereferenceable(8) %26, ptr noundef @.str.26)
  br label %47

28:                                               ; preds = %2
  %29 = load ptr, ptr %4, align 8, !tbaa !15
  %30 = call noundef nonnull align 8 dereferenceable(8) ptr @_ZStlsISt11char_traitsIcEERSt13basic_ostreamIcT_ES5_PKc(ptr noundef nonnull align 8 dereferenceable(8) %29, ptr noundef @.str.27)
  br label %47

31:                                               ; preds = %2
  %32 = load ptr, ptr %4, align 8, !tbaa !15
  %33 = call noundef nonnull align 8 dereferenceable(8) ptr @_ZStlsISt11char_traitsIcEERSt13basic_ostreamIcT_ES5_PKc(ptr noundef nonnull align 8 dereferenceable(8) %32, ptr noundef @.str.28)
  br label %47

34:                                               ; preds = %2
  %35 = load ptr, ptr %4, align 8, !tbaa !15
  %36 = call noundef nonnull align 8 dereferenceable(8) ptr @_ZStlsISt11char_traitsIcEERSt13basic_ostreamIcT_ES5_PKc(ptr noundef nonnull align 8 dereferenceable(8) %35, ptr noundef @.str.29)
  br label %47

37:                                               ; preds = %2
  %38 = load ptr, ptr %4, align 8, !tbaa !15
  %39 = call noundef nonnull align 8 dereferenceable(8) ptr @_ZStlsISt11char_traitsIcEERSt13basic_ostreamIcT_ES5_PKc(ptr noundef nonnull align 8 dereferenceable(8) %38, ptr noundef @.str.30)
  br label %47

40:                                               ; preds = %2
  %41 = load ptr, ptr %4, align 8, !tbaa !15
  %42 = call noundef nonnull align 8 dereferenceable(8) ptr @_ZStlsISt11char_traitsIcEERSt13basic_ostreamIcT_ES5_PKc(ptr noundef nonnull align 8 dereferenceable(8) %41, ptr noundef @.str.31)
  %43 = load ptr, ptr %3, align 8, !tbaa !14
  %44 = load i32, ptr %43, align 4, !tbaa !17
  %45 = call noundef nonnull align 8 dereferenceable(8) ptr @_ZNSolsEi(ptr noundef nonnull align 8 dereferenceable(8) %42, i32 noundef %44)
  %46 = call noundef nonnull align 8 dereferenceable(8) ptr @_ZStlsISt11char_traitsIcEERSt13basic_ostreamIcT_ES5_PKc(ptr noundef nonnull align 8 dereferenceable(8) %45, ptr noundef @.str.32)
  br label %47

47:                                               ; preds = %40, %37, %34, %31, %28, %25, %22, %19, %16, %13, %10, %7
  ret void
}